target datalayout = "e-m:e-p270:32:32-p271:32:32-p272:64:64-i64:64-i128:128-f80:128-n8:16:32:64-S128"
target triple = "x86_64-pc-linux-gnu"

%struct.RelationData = type { %struct.RelFileLocator, ptr, i32, i32, i8, i8, i8, i8, i8, i32, i32, i32, i32, ptr, ptr, i32, %struct.LockInfoData, ptr, ptr, ptr, ptr, ptr, i8, ptr, ptr, ptr, ptr, ptr, ptr, i32, ptr, i8, ptr, ptr, i32, i8, i32, ptr, i8, ptr, ptr, ptr, ptr, ptr, ptr, ptr, i32, ptr, ptr, ptr, ptr, ptr, ptr, ptr, ptr, ptr, ptr, ptr, ptr, ptr, ptr, ptr, ptr, ptr, ptr, ptr, i32, i8, ptr }
%struct.RelFileLocator = type { i32, i32, i32 }
%struct.LockInfoData = type { %struct.LockRelId }
%struct.LockRelId = type { i32, i32 }
%struct.FormData_pg_class = type { i32, %struct.nameData, i32, i32, i32, i32, i32, i32, i32, i32, float, i32, i32, i8, i8, i8, i8, i16, i16, i8, i8, i8, i8, i8, i8, i8, i8, i32, i32, i32 }
%struct.nameData = type { [64 x i8] }
%struct.Node = type { i32 }
%struct.Expr = type { i32 }
%struct.FormData_pg_attribute = type { i32, %struct.nameData, i32, i16, i16, i32, i16, i8, i8, i8, i8, i8, i8, i8, i8, i8, i8, i8, i16, i32 }
%struct.TupleDescData = type { i32, i32, i32, i32, ptr, [0 x %struct.CompactAttribute] }
%struct.CompactAttribute = type { i32, i16, i8, i8, i8, i8, i8, i8, i8 }
%struct.TupleConstr = type { ptr, ptr, ptr, i16, i16, i8, i8, i8 }
%struct.CollateExpr = type { %struct.Expr, ptr, i32, i32 }

@.str.1 = private unnamed_addr constant [17 x i8] c"rewriteHandler.c\00", align 1
@.str.36 = private unnamed_addr constant [66 x i8] c"no generation expression found for column number %d of table \22%s\22\00", align 1
@__func__.expand_generated_columns_internal = private unnamed_addr constant [34 x i8] c"expand_generated_columns_internal\00", align 1

; Function Attrs: inlinehint nounwind uwtable
define internal ptr @newNode(i64 noundef %0, i32 noundef %1) #5 {
  %3 = alloca i64, align 8
  %4 = alloca i32, align 4
  %5 = alloca ptr, align 8
  store i64 %0, ptr %3, align 8
  store i32 %1, ptr %4, align 4
  call void @llvm.lifetime.start.p0(i64 8, ptr %5) #9
  %6 = load i64, ptr %3, align 8
  %7 = call ptr @palloc0(i64 noundef %6)
  store ptr %7, ptr %5, align 8
  %8 = load i32, ptr %4, align 4
  %9 = load ptr, ptr %5, align 8
  %10 = getelementptr inbounds nuw %struct.Node, ptr %9, i32 0, i32 0
  store i32 %8, ptr %10, align 4
  %11 = load ptr, ptr %5, align 8
  call void @llvm.lifetime.end.p0(i64 8, ptr %5) #9
  ret ptr %11
}

; Function Attrs: inlinehint nounwind uwtable
define internal ptr @TupleDescAttr(ptr noundef %0, i32 noundef %1) #5 {
  %3 = alloca ptr, align 8
  %4 = alloca i32, align 4
  %5 = alloca ptr, align 8
  store ptr %0, ptr %3, align 8
  store i32 %1, ptr %4, align 4
  call void @llvm.lifetime.start.p0(i64 8, ptr %5) #9
  %6 = load ptr, ptr %3, align 8
  %7 = load ptr, ptr %3, align 8
  %8 = getelementptr inbounds nuw %struct.TupleDescData, ptr %7, i32 0, i32 0
  %9 = load i32, ptr %8, align 8
  %10 = sext i32 %9 to i64
  %11 = mul i64 %10, 16
  %12 = add i64 24, %11
  %13 = getelementptr inbounds nuw i8, ptr %6, i64 %12
  store ptr %13, ptr %5, align 8
  %14 = load ptr, ptr %5, align 8
  %15 = load i32, ptr %4, align 4
  %16 = sext i32 %15 to i64
  %17 = getelementptr inbounds %struct.FormData_pg_attribute, ptr %14, i64 %16
  call void @llvm.lifetime.end.p0(i64 8, ptr %5) #9
  ret ptr %17
}

; Function Attrs: nounwind uwtable
define internal ptr @expand_generated_columns_internal(ptr noundef %0, ptr noundef %1, i32 noundef %2, ptr noundef %3, i32 noundef %4) #0 {
  %6 = alloca ptr, align 8
  %7 = alloca ptr, align 8
  %8 = alloca i32, align 4
  %9 = alloca ptr, align 8
  %10 = alloca i32, align 4
  %11 = alloca ptr, align 8
  %12 = alloca ptr, align 8
  %13 = alloca i32, align 4
  %14 = alloca ptr, align 8
  %15 = alloca ptr, align 8
  %16 = alloca i32, align 4
  %17 = alloca i32, align 4
  %18 = alloca ptr, align 8
  %19 = alloca ptr, align 8
  store ptr %0, ptr %6, align 8
  store ptr %1, ptr %7, align 8
  store i32 %2, ptr %8, align 4
  store ptr %3, ptr %9, align 8
  store i32 %4, ptr %10, align 4
  call void @llvm.lifetime.start.p0(i64 8, ptr %11) #9
  %20 = load ptr, ptr %7, align 8
  %21 = getelementptr inbounds nuw %struct.RelationData, ptr %20, i32 0, i32 14
  %22 = load ptr, ptr %21, align 8
  store ptr %22, ptr %11, align 8
  %23 = load ptr, ptr %11, align 8
  %24 = getelementptr inbounds nuw %struct.TupleDescData, ptr %23, i32 0, i32 4
  %25 = load ptr, ptr %24, align 8
  %26 = icmp ne ptr %25, null
  br i1 %26, label %27, label %121

27:                                               ; preds = %5
  %28 = load ptr, ptr %11, align 8
  %29 = getelementptr inbounds nuw %struct.TupleDescData, ptr %28, i32 0, i32 4
  %30 = load ptr, ptr %29, align 8
  %31 = getelementptr inbounds nuw %struct.TupleConstr, ptr %30, i32 0, i32 7
  %32 = load i8, ptr %31, align 2, !range !4, !noundef !5
  %33 = trunc i8 %32 to i1
  br i1 %33, label %34, label %121

34:                                               ; preds = %27
  call void @llvm.lifetime.start.p0(i64 8, ptr %12) #9
  store ptr null, ptr %12, align 8
  call void @llvm.lifetime.start.p0(i64 4, ptr %13) #9
  store i32 0, ptr %13, align 4
  br label %35

35:                                               ; preds = %110, %34
  %36 = load i32, ptr %13, align 4
  %37 = load ptr, ptr %11, align 8
  %38 = getelementptr inbounds nuw %struct.TupleDescData, ptr %37, i32 0, i32 0
  %39 = load i32, ptr %38, align 8
  %40 = icmp slt i32 %36, %39
  br i1 %40, label %42, label %41

41:                                               ; preds = %35
  call void @llvm.lifetime.end.p0(i64 4, ptr %13) #9
  br label %113

42:                                               ; preds = %35
  call void @llvm.lifetime.start.p0(i64 8, ptr %14) #9
  %43 = load ptr, ptr %11, align 8
  %44 = load i32, ptr %13, align 4
  %45 = call ptr @TupleDescAttr(ptr noundef %43, i32 noundef %44)
  store ptr %45, ptr %14, align 8
  %46 = load ptr, ptr %14, align 8
  %47 = getelementptr inbounds nuw %struct.FormData_pg_attribute, ptr %46, i32 0, i32 15
  %48 = load i8, ptr %47, align 2
  %49 = sext i8 %48 to i32
  %50 = icmp eq i32 %49, 118
  br i1 %50, label %51, label %109

51:                                               ; preds = %42
  call void @llvm.lifetime.start.p0(i64 8, ptr %15) #9
  call void @llvm.lifetime.start.p0(i64 4, ptr %16) #9
  %52 = load i32, ptr %13, align 4
  %53 = add i32 %52, 1
  store i32 %53, ptr %16, align 4
  call void @llvm.lifetime.start.p0(i64 4, ptr %17) #9
  call void @llvm.lifetime.start.p0(i64 8, ptr %18) #9
  %54 = load ptr, ptr %7, align 8
  %55 = load i32, ptr %16, align 4
  %56 = call ptr @build_column_default(ptr noundef %54, i32 noundef %55)
  store ptr %56, ptr %15, align 8
  %57 = load ptr, ptr %15, align 8
  %58 = icmp eq ptr %57, null
  br i1 %58, label %59, label %77

59:                                               ; preds = %51
  br label %60

60:                                               ; preds = %59
  br i1 true, label %61, label %63

61:                                               ; preds = %60
  %62 = call zeroext i1 @errstart_cold(i32 noundef 21, ptr noundef null) #10
  br i1 %62, label %65, label %74

63:                                               ; preds = %60
  %64 = call zeroext i1 @errstart(i32 noundef 21, ptr noundef null)
  br i1 %64, label %65, label %74

65:                                               ; preds = %63, %61
  %66 = load i32, ptr %16, align 4
  %67 = load ptr, ptr %7, align 8
  %68 = getelementptr inbounds nuw %struct.RelationData, ptr %67, i32 0, i32 13
  %69 = load ptr, ptr %68, align 8
  %70 = getelementptr inbounds nuw %struct.FormData_pg_class, ptr %69, i32 0, i32 1
  %71 = getelementptr inbounds nuw %struct.nameData, ptr %70, i32 0, i32 0
  %72 = getelementptr inbounds [64 x i8], ptr %71, i64 0, i64 0
  %73 = call i32 (ptr, ...) @errmsg_internal(ptr noundef @.str.36, i32 noundef %66, ptr noundef %72)
  call void @errfinish(ptr noundef @.str.1, i32 noundef 4467, ptr noundef @__func__.expand_generated_columns_internal)
  br label %74

74:                                               ; preds = %65, %63, %61
  unreachable

75:                                               ; No predecessors!
  br label %76

76:                                               ; preds = %75
  br label %77

77:                                               ; preds = %76, %51
  %78 = load ptr, ptr %14, align 8
  %79 = getelementptr inbounds nuw %struct.FormData_pg_attribute, ptr %78, i32 0, i32 19
  %80 = load i32, ptr %79, align 4
  store i32 %80, ptr %17, align 4
  %81 = load i32, ptr %17, align 4
  %82 = icmp ne i32 %81, 0
  br i1 %82, label %83, label %99

83:                                               ; preds = %77
  %84 = load i32, ptr %17, align 4
  %85 = load ptr, ptr %15, align 8
  %86 = call i32 @exprCollation(ptr noundef %85)
  %87 = icmp ne i32 %84, %86
  br i1 %87, label %88, label %99

88:                                               ; preds = %83
  call void @llvm.lifetime.start.p0(i64 8, ptr %19) #9
  %89 = call ptr @newNode(i64 noundef 24, i32 noundef 31)
  store ptr %89, ptr %19, align 8
  %90 = load ptr, ptr %15, align 8
  %91 = load ptr, ptr %19, align 8
  %92 = getelementptr inbounds nuw %struct.CollateExpr, ptr %91, i32 0, i32 1
  store ptr %90, ptr %92, align 8
  %93 = load i32, ptr %17, align 4
  %94 = load ptr, ptr %19, align 8
  %95 = getelementptr inbounds nuw %struct.CollateExpr, ptr %94, i32 0, i32 2
  store i32 %93, ptr %95, align 8
  %96 = load ptr, ptr %19, align 8
  %97 = getelementptr inbounds nuw %struct.CollateExpr, ptr %96, i32 0, i32 3
  store i32 -1, ptr %97, align 4
  %98 = load ptr, ptr %19, align 8
  store ptr %98, ptr %15, align 8
  call void @llvm.lifetime.end.p0(i64 8, ptr %19) #9
  br label %99

99:                                               ; preds = %88, %83, %77
  %100 = load ptr, ptr %15, align 8
  %101 = load i32, ptr %8, align 4
  call void @ChangeVarNodes(ptr noundef %100, i32 noundef 1, i32 noundef %101, i32 noundef 0)
  %102 = load ptr, ptr %15, align 8
  %103 = load i32, ptr %16, align 4
  %104 = trunc i32 %103 to i16
  %105 = call ptr @makeTargetEntry(ptr noundef %102, i16 noundef signext %104, ptr noundef null, i1 noundef zeroext false)
  store ptr %105, ptr %18, align 8
  %106 = load ptr, ptr %12, align 8
  %107 = load ptr, ptr %18, align 8
  %108 = call ptr @lappend(ptr noundef %106, ptr noundef %107)
  store ptr %108, ptr %12, align 8
  call void @llvm.lifetime.end.p0(i64 8, ptr %18) #9
  call void @llvm.lifetime.end.p0(i64 4, ptr %17) #9
  call void @llvm.lifetime.end.p0(i64 4, ptr %16) #9
  call void @llvm.lifetime.end.p0(i64 8, ptr %15) #9
  br label %109

109:                                              ; preds = %99, %42
  call void @llvm.lifetime.end.p0(i64 8, ptr %14) #9
  br label %110

110:                                              ; preds = %109
  %111 = load i32, ptr %13, align 4
  %112 = add i32 %111, 1
  store i32 %112, ptr %13, align 4
  br label %35, !llvm.loop !20

113:                                              ; preds = %41
  %114 = load ptr, ptr %6, align 8
  %115 = load i32, ptr %8, align 4
  %116 = load ptr, ptr %9, align 8
  %117 = load ptr, ptr %12, align 8
  %118 = load i32, ptr %10, align 4
  %119 = load i32, ptr %8, align 4
  %120 = call ptr @ReplaceVarsFromTargetList(ptr noundef %114, i32 noundef %115, i32 noundef 0, ptr noundef %116, ptr noundef %117, i32 noundef %118, i32 noundef 1, i32 noundef %119, ptr noundef null)
  store ptr %120, ptr %6, align 8
  call void @llvm.lifetime.end.p0(i64 8, ptr %12) #9
  br label %121

121:                                              ; preds = %113, %27, %5
  %122 = load ptr, ptr %6, align 8
  call void @llvm.lifetime.end.p0(i64 8, ptr %11) #9
  ret ptr %122
}