; Function Attrs: nounwind uwtable
define internal fastcc ptr @expand_generated_columns_internal(ptr noundef %0, ptr noundef %1, i32 noundef %2, ptr noundef %3, i32 noundef %4) unnamed_addr #0 {
  %6 = getelementptr inbounds nuw i8, ptr %1, i64 64
  %7 = load ptr, ptr %6, align 8
  %8 = getelementptr inbounds nuw i8, ptr %7, i64 16
  %9 = load ptr, ptr %8, align 8
  %.not = icmp eq ptr %9, null
  br i1 %.not, label %52, label %10

10:                                               ; preds = %5
  %11 = getelementptr inbounds nuw i8, ptr %9, i64 30
  %12 = load i8, ptr %11, align 2, !range !4, !noundef !5
  %13 = trunc nuw i8 %12 to i1
  br i1 %13, label %.preheader, label %52

.preheader:                                       ; preds = %10
  %invariant.gep = getelementptr i8, ptr %7, i64 24
  %14 = load i32, ptr %7, align 8
  %15 = icmp sgt i32 %14, 0
  br i1 %15, label %.lr.ph, label %._crit_edge

._crit_edge:                                      ; preds = %.lr.ph._crit_edge, %.preheader
  %.037.lcssa = phi ptr [ null, %.preheader ], [ %.1, %.lr.ph._crit_edge ]
  %16 = tail call ptr @ReplaceVarsFromTargetList(ptr noundef %0, i32 noundef %2, i32 noundef 0, ptr noundef %3, ptr noundef %.037.lcssa, i32 noundef %4, i32 noundef 1, i32 noundef %2, ptr noundef null) #10
  br label %52

.lr.ph:                                           ; preds = %.preheader, %.lr.ph._crit_edge
  %17 = phi i32 [ %49, %.lr.ph._crit_edge ], [ %14, %.preheader ]
  %indvars.iv = phi i64 [ %24, %.lr.ph._crit_edge ], [ 0, %.preheader ]
  %.03747 = phi ptr [ %.1, %.lr.ph._crit_edge ], [ null, %.preheader ]
  %18 = sext i32 %17 to i64
  %19 = shl nsw i64 %18, 4
  %gep = getelementptr i8, ptr %invariant.gep, i64 %19
  %20 = getelementptr inbounds nuw %struct.FormData_pg_attribute, ptr %gep, i64 %indvars.iv
  %21 = getelementptr inbounds nuw i8, ptr %20, i64 90
  %22 = load i8, ptr %21, align 2
  %23 = icmp eq i8 %22, 118
  %24 = add nuw nsw i64 %indvars.iv, 1
  br i1 %23, label %25, label %.lr.ph._crit_edge

25:                                               ; preds = %.lr.ph
  %26 = trunc nuw nsw i64 %24 to i32
  %27 = tail call ptr @build_column_default(ptr noundef %1, i32 noundef %26)
  %28 = icmp eq ptr %27, null
  br i1 %28, label %29, label %35

29:                                               ; preds = %25
  %30 = tail call zeroext i1 @errstart_cold(i32 noundef 21, ptr noundef null) #11
  tail call void @llvm.assume(i1 %30)
  %31 = getelementptr inbounds nuw i8, ptr %1, i64 56
  %32 = load ptr, ptr %31, align 8
  %33 = getelementptr inbounds nuw i8, ptr %32, i64 4
  %34 = tail call i32 (ptr, ...) @errmsg_internal(ptr noundef nonnull @.str.36, i32 noundef %26, ptr noundef nonnull %33) #10
  tail call void @errfinish(ptr noundef nonnull @.str.1, i32 noundef 4467, ptr noundef nonnull @__func__.expand_generated_columns_internal) #10
  unreachable

35:                                               ; preds = %25
  %36 = getelementptr inbounds nuw i8, ptr %20, i64 96
  %37 = load i32, ptr %36, align 4
  %.not43 = icmp eq i32 %37, 0
  br i1 %.not43, label %45, label %38

38:                                               ; preds = %35
  %39 = tail call i32 @exprCollation(ptr noundef nonnull %27) #10
  %.not44 = icmp eq i32 %37, %39
  br i1 %.not44, label %45, label %40

40:                                               ; preds = %38
  %41 = tail call noundef ptr @palloc0(i64 noundef 24) #10
  store i32 31, ptr %41, align 4
  %42 = getelementptr inbounds nuw i8, ptr %41, i64 8
  store ptr %27, ptr %42, align 8
  %43 = getelementptr inbounds nuw i8, ptr %41, i64 16
  store i32 %37, ptr %43, align 8
  %44 = getelementptr inbounds nuw i8, ptr %41, i64 20
  store i32 -1, ptr %44, align 4
  br label %45

45:                                               ; preds = %40, %38, %35
  %.039 = phi ptr [ %41, %40 ], [ %27, %38 ], [ %27, %35 ]
  tail call void @ChangeVarNodes(ptr noundef nonnull %.039, i32 noundef 1, i32 noundef %2, i32 noundef 0) #10
  %46 = trunc i64 %24 to i16
  %47 = tail call ptr @makeTargetEntry(ptr noundef nonnull %.039, i16 noundef signext %46, ptr noundef null, i1 noundef zeroext false) #10
  %48 = tail call ptr @lappend(ptr noundef %.03747, ptr noundef %47) #10
  %.pre = load i32, ptr %7, align 8
  br label %.lr.ph._crit_edge

.lr.ph._crit_edge:                                ; preds = %.lr.ph, %45
  %49 = phi i32 [ %.pre, %45 ], [ %17, %.lr.ph ]
  %.1 = phi ptr [ %48, %45 ], [ %.03747, %.lr.ph ]
  %50 = sext i32 %49 to i64
  %51 = icmp slt i64 %24, %50
  br i1 %51, label %.lr.ph, label %._crit_edge, !llvm.loop !10

52:                                               ; preds = %._crit_edge, %10, %5
  %.0 = phi ptr [ %16, %._crit_edge ], [ %0, %10 ], [ %0, %5 ]
  ret ptr %.0
}